; Function Attrs: nounwind uwtable
define void @Gia_ManTisTest(ptr noundef %0) local_unnamed_addr #0 {
  %2 = tail call noalias dereferenceable_or_null(16) ptr @malloc(i64 noundef 16) #17
  %3 = getelementptr inbounds nuw i8, ptr %2, i64 4
  store i32 0, ptr %3, align 4, !tbaa !36
  store i32 16, ptr %2, align 8, !tbaa !39
  %4 = tail call noalias dereferenceable_or_null(64) ptr @malloc(i64 noundef 64) #17
  %5 = getelementptr inbounds nuw i8, ptr %2, i64 8
  store ptr %4, ptr %5, align 8, !tbaa !37
  %6 = tail call noalias dereferenceable_or_null(16) ptr @malloc(i64 noundef 16) #17
  %7 = getelementptr inbounds nuw i8, ptr %6, i64 4
  store i32 0, ptr %7, align 4, !tbaa !36
  store i32 16, ptr %6, align 8, !tbaa !39
  %8 = tail call noalias dereferenceable_or_null(64) ptr @malloc(i64 noundef 64) #17
  %9 = getelementptr inbounds nuw i8, ptr %6, i64 8
  store ptr %8, ptr %9, align 8, !tbaa !37
  %10 = tail call ptr @Gia_ManTisDupMuxes(ptr noundef %0)
  tail call void @Gia_ManCreateRefs(ptr noundef %10) #15
  %11 = getelementptr i8, ptr %10, i64 32
  %12 = getelementptr inbounds nuw i8, ptr %10, i64 24
  %13 = load i32, ptr %12, align 8, !tbaa !42
  %14 = icmp sgt i32 %13, 0
  br i1 %14, label %.lr.ph, label %.critedge

.lr.ph:                                           ; preds = %1
  %15 = getelementptr i8, ptr %10, i64 144
  br label %16

16:                                               ; preds = %.lr.ph, %29
  %17 = phi i32 [ %13, %.lr.ph ], [ %30, %29 ]
  %indvars.iv = phi i64 [ 0, %.lr.ph ], [ %indvars.iv.next, %29 ]
  %.val44 = load ptr, ptr %11, align 8, !tbaa !32
  %.not = icmp eq ptr %.val44, null
  br i1 %.not, label %.critedge, label %18

18:                                               ; preds = %16
  %19 = getelementptr inbounds nuw %struct.Gia_Obj_t_, ptr %.val44, i64 %indvars.iv
  %.val45 = load i64, ptr %19, align 4
  %20 = and i64 %.val45, 2147483648
  %.not.i = icmp ne i64 %20, 0
  %21 = and i64 %.val45, 536870911
  %22 = icmp eq i64 %21, 536870911
  %narrow.i.not = or i1 %.not.i, %22
  br i1 %narrow.i.not, label %29, label %23

23:                                               ; preds = %18
  %.val47 = load ptr, ptr %15, align 8, !tbaa !3
  %24 = getelementptr inbounds nuw i32, ptr %.val47, i64 %indvars.iv
  %25 = load i32, ptr %24, align 4, !tbaa !38
  %26 = icmp eq i32 %25, 1
  br i1 %26, label %29, label %27

27:                                               ; preds = %23
  %28 = trunc nuw nsw i64 %indvars.iv to i32
  tail call void @Gia_ManTisCollectMffc(ptr noundef nonnull %10, i32 noundef %28, ptr noundef nonnull %2, ptr noundef nonnull %6)
  tail call void @Gia_ManTisPrintMffc(ptr noundef nonnull %10, i32 noundef %28, ptr noundef nonnull %2, ptr noundef nonnull %6)
  %.pre = load i32, ptr %12, align 8, !tbaa !42
  br label %29

29:                                               ; preds = %27, %18, %23
  %30 = phi i32 [ %.pre, %27 ], [ %17, %18 ], [ %17, %23 ]
  %indvars.iv.next = add nuw nsw i64 %indvars.iv, 1
  %31 = sext i32 %30 to i64
  %32 = icmp slt i64 %indvars.iv.next, %31
  br i1 %32, label %16, label %.critedge, !llvm.loop !53

.critedge:                                        ; preds = %16, %29, %1
  %33 = getelementptr inbounds nuw i8, ptr %10, i64 72
  %34 = load ptr, ptr %33, align 8, !tbaa !45
  %35 = getelementptr i8, ptr %34, i64 4
  %.val61 = load i32, ptr %35, align 4, !tbaa !36
  %36 = icmp sgt i32 %.val61, 0
  br i1 %36, label %.lr.ph63, label %.critedge2

.lr.ph63:                                         ; preds = %.critedge
  %37 = getelementptr i8, ptr %10, i64 144
  br label %38

38:                                               ; preds = %.lr.ph63, %62
  %39 = phi ptr [ %34, %.lr.ph63 ], [ %63, %62 ]
  %indvars.iv66 = phi i64 [ 0, %.lr.ph63 ], [ %indvars.iv.next67, %62 ]
  %.val48 = load ptr, ptr %11, align 8, !tbaa !32
  %40 = getelementptr i8, ptr %39, i64 8
  %.val49.val = load ptr, ptr %40, align 8, !tbaa !37
  %41 = getelementptr inbounds nuw i32, ptr %.val49.val, i64 %indvars.iv66
  %42 = load i32, ptr %41, align 4, !tbaa !38
  %43 = sext i32 %42 to i64
  %44 = getelementptr inbounds %struct.Gia_Obj_t_, ptr %.val48, i64 %43
  %.not42 = icmp eq ptr %.val48, null
  br i1 %.not42, label %.critedge2, label %45

45:                                               ; preds = %38
  %.val3.i = load i64, ptr %44, align 4
  %46 = trunc i64 %.val3.i to i32
  %47 = and i32 %46, 536870911
  %48 = sub nsw i32 %42, %47
  %.val46 = load ptr, ptr %37, align 8, !tbaa !3
  %49 = sext i32 %48 to i64
  %50 = getelementptr inbounds i32, ptr %.val46, i64 %49
  %51 = load i32, ptr %50, align 4, !tbaa !38
  %52 = icmp sgt i32 %51, 1
  br i1 %52, label %62, label %53

53:                                               ; preds = %45
  %54 = ptrtoint ptr %44 to i64
  tail call void @Gia_ManTisCollectMffc(ptr noundef nonnull %10, i32 noundef %48, ptr noundef nonnull %2, ptr noundef nonnull %6)
  %.val52 = load ptr, ptr %11, align 8, !tbaa !32
  %55 = ptrtoint ptr %.val52 to i64
  %56 = sub i64 %54, %55
  %57 = sdiv exact i64 %56, 12
  %58 = trunc i64 %57 to i32
  %.val3.i54 = load i64, ptr %44, align 4
  %59 = trunc i64 %.val3.i54 to i32
  %60 = and i32 %59, 536870911
  %61 = sub nsw i32 %58, %60
  tail call void @Gia_ManTisPrintMffc(ptr noundef nonnull %10, i32 noundef %61, ptr noundef nonnull %2, ptr noundef nonnull %6)
  %.pre69 = load ptr, ptr %33, align 8, !tbaa !45
  br label %62

62:                                               ; preds = %45, %53
  %63 = phi ptr [ %39, %45 ], [ %.pre69, %53 ]
  %indvars.iv.next67 = add nuw nsw i64 %indvars.iv66, 1
  %64 = getelementptr i8, ptr %63, i64 4
  %.val = load i32, ptr %64, align 4, !tbaa !36
  %65 = sext i32 %.val to i64
  %66 = icmp slt i64 %indvars.iv.next67, %65
  br i1 %66, label %38, label %.critedge2, !llvm.loop !54

.critedge2:                                       ; preds = %38, %62, %.critedge
  tail call void @Gia_ManStop(ptr noundef nonnull %10) #15
  %67 = load ptr, ptr %5, align 8, !tbaa !37
  %.not.i55 = icmp eq ptr %67, null
  br i1 %.not.i55, label %Vec_IntFree.exit, label %68

68:                                               ; preds = %.critedge2
  tail call void @free(ptr noundef nonnull %67) #15
  br label %Vec_IntFree.exit

Vec_IntFree.exit:                                 ; preds = %.critedge2, %68
  tail call void @free(ptr noundef nonnull %2) #15
  %69 = load ptr, ptr %9, align 8, !tbaa !37
  %.not.i56 = icmp eq ptr %69, null
  br i1 %.not.i56, label %Vec_IntFree.exit57, label %70

70:                                               ; preds = %Vec_IntFree.exit
  tail call void @free(ptr noundef nonnull %69) #15
  br label %Vec_IntFree.exit57

Vec_IntFree.exit57:                               ; preds = %Vec_IntFree.exit, %70
  tail call void @free(ptr noundef nonnull %6) #15
  ret void
}